; Function Attrs: nounwind uwtable
define hidden noundef zeroext i1 @SDL_SetJoystickPlayerIndex_REAL(ptr noundef %0, i32 noundef %1) local_unnamed_addr #1 {
  %3 = tail call i32 @SDL_AddAtomicInt_REAL(ptr noundef nonnull @SDL_joystick_lock_pending, i32 noundef 1) #13
  %4 = load ptr, ptr @SDL_joystick_lock, align 8
  tail call void @SDL_LockMutex_REAL(ptr noundef %4) #13
  %5 = tail call i32 @SDL_AddAtomicInt_REAL(ptr noundef nonnull @SDL_joystick_lock_pending, i32 noundef -1) #13
  %6 = load i32, ptr @SDL_joysticks_locked, align 4
  %7 = add nsw i32 %6, 1
  store i32 %7, ptr @SDL_joysticks_locked, align 4
  %8 = tail call zeroext i1 @SDL_ObjectValid(ptr noundef %0, i32 noundef 4) #13
  br i1 %8, label %21, label %9

9:                                                ; preds = %2
  %10 = tail call zeroext i1 (ptr, ...) @SDL_SetError_REAL(ptr noundef nonnull @.str.2, ptr noundef nonnull @.str.3) #13
  %11 = load i32, ptr @SDL_joysticks_locked, align 4
  %12 = add nsw i32 %11, -1
  store i32 %12, ptr @SDL_joysticks_locked, align 4
  %.b4.i = load i1, ptr @SDL_joysticks_initialized, align 1
  %13 = icmp ne i32 %12, 0
  %or.cond.i = select i1 %.b4.i, i1 true, i1 %13
  br i1 %or.cond.i, label %.critedge.i, label %14

14:                                               ; preds = %9
  %15 = tail call i32 @SDL_GetAtomicInt_REAL(ptr noundef nonnull @SDL_joystick_lock_pending) #13
  %16 = icmp eq i32 %15, 0
  br i1 %16, label %17, label %.critedge.i

17:                                               ; preds = %14
  %18 = load ptr, ptr @SDL_joystick_lock, align 8
  tail call void @SDL_LockMutex_REAL(ptr noundef %18) #13
  %19 = load ptr, ptr @SDL_joystick_lock, align 8
  tail call void @SDL_UnlockMutex_REAL(ptr noundef %19) #13
  store ptr null, ptr @SDL_joystick_lock, align 8
  tail call void @SDL_UnlockMutex_REAL(ptr noundef %18) #13
  tail call void @SDL_DestroyMutex_REAL(ptr noundef %18) #13
  br label %SDL_UnlockJoysticks_REAL.exit

.critedge.i:                                      ; preds = %14, %9
  %20 = load ptr, ptr @SDL_joystick_lock, align 8
  tail call void @SDL_UnlockMutex_REAL(ptr noundef %20) #13
  br label %SDL_UnlockJoysticks_REAL.exit

21:                                               ; preds = %2
  %22 = load i32, ptr %0, align 8
  %23 = tail call fastcc zeroext i1 @SDL_SetJoystickIDForPlayerIndex(i32 noundef %1, i32 noundef %22)
  %24 = load i32, ptr @SDL_joysticks_locked, align 4
  %25 = add nsw i32 %24, -1
  store i32 %25, ptr @SDL_joysticks_locked, align 4
  %.b4.i4 = load i1, ptr @SDL_joysticks_initialized, align 1
  %26 = icmp ne i32 %25, 0
  %or.cond.i5 = select i1 %.b4.i4, i1 true, i1 %26
  br i1 %or.cond.i5, label %.critedge.i6, label %27

27:                                               ; preds = %21
  %28 = tail call i32 @SDL_GetAtomicInt_REAL(ptr noundef nonnull @SDL_joystick_lock_pending) #13
  %29 = icmp eq i32 %28, 0
  br i1 %29, label %30, label %.critedge.i6

30:                                               ; preds = %27
  %31 = load ptr, ptr @SDL_joystick_lock, align 8
  tail call void @SDL_LockMutex_REAL(ptr noundef %31) #13
  %32 = load ptr, ptr @SDL_joystick_lock, align 8
  tail call void @SDL_UnlockMutex_REAL(ptr noundef %32) #13
  store ptr null, ptr @SDL_joystick_lock, align 8
  tail call void @SDL_UnlockMutex_REAL(ptr noundef %31) #13
  tail call void @SDL_DestroyMutex_REAL(ptr noundef %31) #13
  br label %SDL_UnlockJoysticks_REAL.exit

.critedge.i6:                                     ; preds = %27, %21
  %33 = load ptr, ptr @SDL_joystick_lock, align 8
  tail call void @SDL_UnlockMutex_REAL(ptr noundef %33) #13
  br label %SDL_UnlockJoysticks_REAL.exit

SDL_UnlockJoysticks_REAL.exit:                    ; preds = %.critedge.i6, %30, %.critedge.i, %17
  %.0 = phi i1 [ false, %17 ], [ false, %.critedge.i ], [ %23, %30 ], [ %23, %.critedge.i6 ]
  ret i1 %.0
}